target datalayout = "e-m:e-p270:32:32-p271:32:32-p272:64:64-i64:64-i128:128-f80:128-n8:16:32:64-S128"
target triple = "x86_64-pc-linux-gnu"

%struct.TupleTableSlotOps = type { i64, ptr, ptr, ptr, ptr, ptr, ptr, ptr, ptr, ptr, ptr, ptr, ptr }
%struct.MaterialState = type { %struct.ScanState, i32, i8, ptr }
%struct.ScanState = type { %struct.PlanState, ptr, ptr, ptr }
%struct.PlanState = type { i32, ptr, ptr, ptr, ptr, ptr, ptr, ptr, ptr, ptr, ptr, ptr, ptr, ptr, ptr, ptr, ptr, ptr, i8, ptr, ptr, ptr, ptr, ptr, i8, i8, i8, i8, i8, i8, i8, i8 }
%struct.Plan = type { i32, i32, double, double, double, i32, i8, i8, i8, i32, ptr, ptr, ptr, ptr, ptr, ptr, ptr }
%struct.Node = type { i32 }

@TTSOpsMinimalTuple = external constant %struct.TupleTableSlotOps, align 8

; Function Attrs: inlinehint nounwind uwtable
define internal ptr @newNode(i64 noundef %0, i32 noundef %1) #2 {
  %3 = alloca i64, align 8
  %4 = alloca i32, align 4
  %5 = alloca ptr, align 8
  store i64 %0, ptr %3, align 8
  store i32 %1, ptr %4, align 4
  call void @llvm.lifetime.start.p0(i64 8, ptr %5) #5
  %6 = load i64, ptr %3, align 8
  %7 = call ptr @palloc0(i64 noundef %6)
  store ptr %7, ptr %5, align 8
  %8 = load i32, ptr %4, align 4
  %9 = load ptr, ptr %5, align 8
  %10 = getelementptr inbounds nuw %struct.Node, ptr %9, i32 0, i32 0
  store i32 %8, ptr %10, align 4
  %11 = load ptr, ptr %5, align 8
  call void @llvm.lifetime.end.p0(i64 8, ptr %5) #5
  ret ptr %11
}

; Function Attrs: nounwind uwtable
define dso_local ptr @ExecInitMaterial(ptr noundef %0, ptr noundef %1, i32 noundef %2) #0 {
  %4 = alloca ptr, align 8
  %5 = alloca ptr, align 8
  %6 = alloca i32, align 4
  %7 = alloca ptr, align 8
  %8 = alloca ptr, align 8
  store ptr %0, ptr %4, align 8
  store ptr %1, ptr %5, align 8
  store i32 %2, ptr %6, align 4
  call void @llvm.lifetime.start.p0(i64 8, ptr %7) #5
  call void @llvm.lifetime.start.p0(i64 8, ptr %8) #5
  %9 = call ptr @newNode(i64 noundef 240, i32 noundef 423)
  store ptr %9, ptr %7, align 8
  %10 = load ptr, ptr %4, align 8
  %11 = load ptr, ptr %7, align 8
  %12 = getelementptr inbounds nuw %struct.MaterialState, ptr %11, i32 0, i32 0
  %13 = getelementptr inbounds nuw %struct.ScanState, ptr %12, i32 0, i32 0
  %14 = getelementptr inbounds nuw %struct.PlanState, ptr %13, i32 0, i32 1
  store ptr %10, ptr %14, align 8
  %15 = load ptr, ptr %5, align 8
  %16 = load ptr, ptr %7, align 8
  %17 = getelementptr inbounds nuw %struct.MaterialState, ptr %16, i32 0, i32 0
  %18 = getelementptr inbounds nuw %struct.ScanState, ptr %17, i32 0, i32 0
  %19 = getelementptr inbounds nuw %struct.PlanState, ptr %18, i32 0, i32 2
  store ptr %15, ptr %19, align 8
  %20 = load ptr, ptr %7, align 8
  %21 = getelementptr inbounds nuw %struct.MaterialState, ptr %20, i32 0, i32 0
  %22 = getelementptr inbounds nuw %struct.ScanState, ptr %21, i32 0, i32 0
  %23 = getelementptr inbounds nuw %struct.PlanState, ptr %22, i32 0, i32 3
  store ptr @ExecMaterial, ptr %23, align 8
  %24 = load i32, ptr %6, align 4
  %25 = and i32 %24, 28
  %26 = load ptr, ptr %7, align 8
  %27 = getelementptr inbounds nuw %struct.MaterialState, ptr %26, i32 0, i32 1
  store i32 %25, ptr %27, align 8
  %28 = load i32, ptr %6, align 4
  %29 = and i32 %28, 8
  %30 = icmp ne i32 %29, 0
  br i1 %30, label %31, label %36

31:                                               ; preds = %3
  %32 = load ptr, ptr %7, align 8
  %33 = getelementptr inbounds nuw %struct.MaterialState, ptr %32, i32 0, i32 1
  %34 = load i32, ptr %33, align 8
  %35 = or i32 %34, 4
  store i32 %35, ptr %33, align 8
  br label %36

36:                                               ; preds = %31, %3
  %37 = load ptr, ptr %7, align 8
  %38 = getelementptr inbounds nuw %struct.MaterialState, ptr %37, i32 0, i32 2
  store i8 0, ptr %38, align 4
  %39 = load ptr, ptr %7, align 8
  %40 = getelementptr inbounds nuw %struct.MaterialState, ptr %39, i32 0, i32 3
  store ptr null, ptr %40, align 8
  %41 = load i32, ptr %6, align 4
  %42 = and i32 %41, -29
  store i32 %42, ptr %6, align 4
  %43 = load ptr, ptr %4, align 8
  %44 = getelementptr inbounds nuw %struct.Plan, ptr %43, i32 0, i32 12
  %45 = load ptr, ptr %44, align 8
  store ptr %45, ptr %8, align 8
  %46 = load ptr, ptr %8, align 8
  %47 = load ptr, ptr %5, align 8
  %48 = load i32, ptr %6, align 4
  %49 = call ptr @ExecInitNode(ptr noundef %46, ptr noundef %47, i32 noundef %48)
  %50 = load ptr, ptr %7, align 8
  %51 = getelementptr inbounds nuw %struct.PlanState, ptr %50, i32 0, i32 9
  store ptr %49, ptr %51, align 8
  %52 = load ptr, ptr %7, align 8
  %53 = getelementptr inbounds nuw %struct.MaterialState, ptr %52, i32 0, i32 0
  %54 = getelementptr inbounds nuw %struct.ScanState, ptr %53, i32 0, i32 0
  call void @ExecInitResultTupleSlotTL(ptr noundef %54, ptr noundef @TTSOpsMinimalTuple)
  %55 = load ptr, ptr %7, align 8
  %56 = getelementptr inbounds nuw %struct.MaterialState, ptr %55, i32 0, i32 0
  %57 = getelementptr inbounds nuw %struct.ScanState, ptr %56, i32 0, i32 0
  %58 = getelementptr inbounds nuw %struct.PlanState, ptr %57, i32 0, i32 17
  store ptr null, ptr %58, align 8
  %59 = load ptr, ptr %5, align 8
  %60 = load ptr, ptr %7, align 8
  %61 = getelementptr inbounds nuw %struct.MaterialState, ptr %60, i32 0, i32 0
  call void @ExecCreateScanSlotFromOuterPlan(ptr noundef %59, ptr noundef %61, ptr noundef @TTSOpsMinimalTuple)
  %62 = load ptr, ptr %7, align 8
  call void @llvm.lifetime.end.p0(i64 8, ptr %8) #5
  call void @llvm.lifetime.end.p0(i64 8, ptr %7) #5
  ret ptr %62
}