; Function Attrs: nounwind uwtable
define dso_local noundef ptr @ExecInitMaterial(ptr noundef %0, ptr noundef %1, i32 noundef %2) local_unnamed_addr #0 {
  %4 = tail call noundef ptr @palloc0(i64 noundef 240) #2
  store i32 423, ptr %4, align 4
  %5 = getelementptr inbounds nuw i8, ptr %4, i64 8
  store ptr %0, ptr %5, align 8
  %6 = getelementptr inbounds nuw i8, ptr %4, i64 16
  store ptr %1, ptr %6, align 8
  %7 = getelementptr inbounds nuw i8, ptr %4, i64 24
  store ptr @ExecMaterial, ptr %7, align 8
  %8 = and i32 %2, 28
  %9 = lshr i32 %2, 1
  %10 = and i32 %9, 4
  %spec.select = or i32 %10, %8
  %11 = getelementptr inbounds nuw i8, ptr %4, i64 224
  store i32 %spec.select, ptr %11, align 8
  %12 = getelementptr inbounds nuw i8, ptr %4, i64 228
  store i8 0, ptr %12, align 4
  %13 = getelementptr inbounds nuw i8, ptr %4, i64 232
  store ptr null, ptr %13, align 8
  %14 = and i32 %2, -29
  %15 = getelementptr inbounds nuw i8, ptr %0, i64 64
  %16 = load ptr, ptr %15, align 8
  %17 = tail call ptr @ExecInitNode(ptr noundef %16, ptr noundef %1, i32 noundef %14) #2
  %18 = getelementptr inbounds nuw i8, ptr %4, i64 72
  store ptr %17, ptr %18, align 8
  tail call void @ExecInitResultTupleSlotTL(ptr noundef nonnull %4, ptr noundef nonnull @TTSOpsMinimalTuple) #2
  %19 = getelementptr inbounds nuw i8, ptr %4, i64 136
  store ptr null, ptr %19, align 8
  tail call void @ExecCreateScanSlotFromOuterPlan(ptr noundef %1, ptr noundef nonnull %4, ptr noundef nonnull @TTSOpsMinimalTuple) #2
  ret ptr %4
}